target datalayout = "e-m:e-p270:32:32-p271:32:32-p272:64:64-i64:64-i128:128-f80:128-n8:16:32:64-S128"
target triple = "x86_64-pc-linux-gnu"

@.str.51 = private unnamed_addr constant [6 x i8] c"quiet\00", align 1
@.str.52 = private unnamed_addr constant [6 x i8] c"fatal\00", align 1
@.str.53 = private unnamed_addr constant [6 x i8] c"error\00", align 1
@.str.54 = private unnamed_addr constant [5 x i8] c"info\00", align 1
@.str.55 = private unnamed_addr constant [8 x i8] c"verbose\00", align 1
@.str.56 = private unnamed_addr constant [6 x i8] c"debug\00", align 1
@.str.57 = private unnamed_addr constant [7 x i8] c"debug2\00", align 1
@.str.58 = private unnamed_addr constant [7 x i8] c"debug3\00", align 1
@.str.59 = private unnamed_addr constant [7 x i8] c"debug4\00", align 1
@.str.60 = private unnamed_addr constant [7 x i8] c"debug5\00", align 1

; Function Attrs: inlinehint nounwind willreturn memory(read) uwtable
define available_externally i32 @atoi(ptr noundef nonnull %0) #8 {
  %2 = alloca ptr, align 8
  store ptr %0, ptr %2, align 8
  %3 = load ptr, ptr %2, align 8
  %4 = call i64 @strtol(ptr noundef %3, ptr noundef null, i32 noundef 10) #11
  %5 = trunc i64 %4 to i32
  ret i32 %5
}

; Function Attrs: nounwind uwtable
define dso_local zeroext i16 @log_string2num(ptr noundef %0) #0 {
  %2 = alloca i16, align 2
  %3 = alloca ptr, align 8
  store ptr %0, ptr %3, align 8
  %4 = load ptr, ptr %3, align 8
  %5 = icmp eq ptr %4, null
  br i1 %5, label %6, label %7

6:                                                ; preds = %1
  store i16 -2, ptr %2, align 2
  br label %74

7:                                                ; preds = %1
  %8 = load ptr, ptr %3, align 8
  %9 = getelementptr inbounds i8, ptr %8, i64 0
  %10 = load i8, ptr %9, align 1
  %11 = sext i8 %10 to i32
  %12 = icmp sge i32 %11, 48
  br i1 %12, label %13, label %23

13:                                               ; preds = %7
  %14 = load ptr, ptr %3, align 8
  %15 = getelementptr inbounds i8, ptr %14, i64 0
  %16 = load i8, ptr %15, align 1
  %17 = sext i8 %16 to i32
  %18 = icmp sle i32 %17, 57
  br i1 %18, label %19, label %23

19:                                               ; preds = %13
  %20 = load ptr, ptr %3, align 8
  %21 = call i32 @atoi(ptr noundef %20) #12
  %22 = trunc i32 %21 to i16
  store i16 %22, ptr %2, align 2
  br label %74

23:                                               ; preds = %13, %7
  %24 = load ptr, ptr %3, align 8
  %25 = call i32 @xstrcasecmp(ptr noundef %24, ptr noundef @.str.51)
  %26 = icmp ne i32 %25, 0
  br i1 %26, label %28, label %27

27:                                               ; preds = %23
  store i16 0, ptr %2, align 2
  br label %74

28:                                               ; preds = %23
  %29 = load ptr, ptr %3, align 8
  %30 = call i32 @xstrcasecmp(ptr noundef %29, ptr noundef @.str.52)
  %31 = icmp ne i32 %30, 0
  br i1 %31, label %33, label %32

32:                                               ; preds = %28
  store i16 1, ptr %2, align 2
  br label %74

33:                                               ; preds = %28
  %34 = load ptr, ptr %3, align 8
  %35 = call i32 @xstrcasecmp(ptr noundef %34, ptr noundef @.str.53)
  %36 = icmp ne i32 %35, 0
  br i1 %36, label %38, label %37

37:                                               ; preds = %33
  store i16 2, ptr %2, align 2
  br label %74

38:                                               ; preds = %33
  %39 = load ptr, ptr %3, align 8
  %40 = call i32 @xstrcasecmp(ptr noundef %39, ptr noundef @.str.54)
  %41 = icmp ne i32 %40, 0
  br i1 %41, label %43, label %42

42:                                               ; preds = %38
  store i16 3, ptr %2, align 2
  br label %74

43:                                               ; preds = %38
  %44 = load ptr, ptr %3, align 8
  %45 = call i32 @xstrcasecmp(ptr noundef %44, ptr noundef @.str.55)
  %46 = icmp ne i32 %45, 0
  br i1 %46, label %48, label %47

47:                                               ; preds = %43
  store i16 4, ptr %2, align 2
  br label %74

48:                                               ; preds = %43
  %49 = load ptr, ptr %3, align 8
  %50 = call i32 @xstrcasecmp(ptr noundef %49, ptr noundef @.str.56)
  %51 = icmp ne i32 %50, 0
  br i1 %51, label %53, label %52

52:                                               ; preds = %48
  store i16 5, ptr %2, align 2
  br label %74

53:                                               ; preds = %48
  %54 = load ptr, ptr %3, align 8
  %55 = call i32 @xstrcasecmp(ptr noundef %54, ptr noundef @.str.57)
  %56 = icmp ne i32 %55, 0
  br i1 %56, label %58, label %57

57:                                               ; preds = %53
  store i16 6, ptr %2, align 2
  br label %74

58:                                               ; preds = %53
  %59 = load ptr, ptr %3, align 8
  %60 = call i32 @xstrcasecmp(ptr noundef %59, ptr noundef @.str.58)
  %61 = icmp ne i32 %60, 0
  br i1 %61, label %63, label %62

62:                                               ; preds = %58
  store i16 7, ptr %2, align 2
  br label %74

63:                                               ; preds = %58
  %64 = load ptr, ptr %3, align 8
  %65 = call i32 @xstrcasecmp(ptr noundef %64, ptr noundef @.str.59)
  %66 = icmp ne i32 %65, 0
  br i1 %66, label %68, label %67

67:                                               ; preds = %63
  store i16 8, ptr %2, align 2
  br label %74

68:                                               ; preds = %63
  %69 = load ptr, ptr %3, align 8
  %70 = call i32 @xstrcasecmp(ptr noundef %69, ptr noundef @.str.60)
  %71 = icmp ne i32 %70, 0
  br i1 %71, label %73, label %72

72:                                               ; preds = %68
  store i16 9, ptr %2, align 2
  br label %74

73:                                               ; preds = %68
  store i16 -2, ptr %2, align 2
  br label %74

74:                                               ; preds = %73, %72, %67, %62, %57, %52, %47, %42, %37, %32, %27, %19, %6
  %75 = load i16, ptr %2, align 2
  ret i16 %75
}