; Function Attrs: nounwind uwtable
define dso_local zeroext i16 @log_string2num(ptr noundef %0) local_unnamed_addr #1 {
  %2 = icmp eq ptr %0, null
  br i1 %2, label %29, label %3

3:                                                ; preds = %1
  %4 = load i8, ptr %0, align 1
  %5 = add i8 %4, -48
  %or.cond = icmp ult i8 %5, 10
  br i1 %or.cond, label %6, label %9

6:                                                ; preds = %3
  %7 = tail call i64 @strtol(ptr noundef nonnull captures(none) %0, ptr noundef null, i32 noundef 10) #24
  %8 = trunc i64 %7 to i16
  br label %29

9:                                                ; preds = %3
  %10 = tail call i32 @xstrcasecmp(ptr noundef nonnull %0, ptr noundef nonnull @.str.51) #24
  %.not = icmp eq i32 %10, 0
  br i1 %.not, label %29, label %11

11:                                               ; preds = %9
  %12 = tail call i32 @xstrcasecmp(ptr noundef nonnull %0, ptr noundef nonnull @.str.52) #24
  %.not16 = icmp eq i32 %12, 0
  br i1 %.not16, label %29, label %13

13:                                               ; preds = %11
  %14 = tail call i32 @xstrcasecmp(ptr noundef nonnull %0, ptr noundef nonnull @.str.53) #24
  %.not17 = icmp eq i32 %14, 0
  br i1 %.not17, label %29, label %15

15:                                               ; preds = %13
  %16 = tail call i32 @xstrcasecmp(ptr noundef nonnull %0, ptr noundef nonnull @.str.54) #24
  %.not18 = icmp eq i32 %16, 0
  br i1 %.not18, label %29, label %17

17:                                               ; preds = %15
  %18 = tail call i32 @xstrcasecmp(ptr noundef nonnull %0, ptr noundef nonnull @.str.55) #24
  %.not19 = icmp eq i32 %18, 0
  br i1 %.not19, label %29, label %19

19:                                               ; preds = %17
  %20 = tail call i32 @xstrcasecmp(ptr noundef nonnull %0, ptr noundef nonnull @.str.56) #24
  %.not20 = icmp eq i32 %20, 0
  br i1 %.not20, label %29, label %21

21:                                               ; preds = %19
  %22 = tail call i32 @xstrcasecmp(ptr noundef nonnull %0, ptr noundef nonnull @.str.57) #24
  %.not21 = icmp eq i32 %22, 0
  br i1 %.not21, label %29, label %23

23:                                               ; preds = %21
  %24 = tail call i32 @xstrcasecmp(ptr noundef nonnull %0, ptr noundef nonnull @.str.58) #24
  %.not22 = icmp eq i32 %24, 0
  br i1 %.not22, label %29, label %25

25:                                               ; preds = %23
  %26 = tail call i32 @xstrcasecmp(ptr noundef nonnull %0, ptr noundef nonnull @.str.59) #24
  %.not23 = icmp eq i32 %26, 0
  br i1 %.not23, label %29, label %27

27:                                               ; preds = %25
  %28 = tail call i32 @xstrcasecmp(ptr noundef nonnull %0, ptr noundef nonnull @.str.60) #24
  %.not24 = icmp eq i32 %28, 0
  %. = select i1 %.not24, i16 9, i16 -2
  br label %29

29:                                               ; preds = %27, %25, %23, %21, %19, %17, %15, %13, %11, %9, %1, %6
  %.0 = phi i16 [ %8, %6 ], [ -2, %1 ], [ 0, %9 ], [ 1, %11 ], [ 2, %13 ], [ 3, %15 ], [ 4, %17 ], [ 5, %19 ], [ 6, %21 ], [ 7, %23 ], [ 8, %25 ], [ %., %27 ]
  ret i16 %.0
}